Stack Allocation = 8192 bytes

 SAMPLEQ

 Start         Length     Name                   Class
 0001:00000000 000000354H CODE32                 CODE 32-bit
 0002:00000000 000000080H DATA32                 DATA 32-bit
 0002:00000080 000000000H CTOR_DTOR1             DATA 32-bit
 0002:00000080 000000000H CTOR_DTOR2             DATA 32-bit
 0002:00000080 000000000H CTOR_DTOR3             DATA 32-bit
 0002:00000080 000000000H CONST32                CONST 32-bit
 0002:00000080 000000000H EDC1                   EDC_CLASS 32-bit
 0002:00000080 000000018H EDC2                   EDC_CLASS 32-bit
 0002:00000098 000000000H EDC3                   EDC_CLASS 32-bit
 0002:00000098 000000000H BSS32                  BSS 32-bit
 0002:000000A0 000002000H STACK32                STACK 32-bit

 Origin   Group
 0000:0   FLAT
 0002:0   DGROUP

  Address         Publics by Name

 0000:00000000  Imp  DosExitList          (DOSCALLS.296)
 0000:00000000  Imp  exit                 (DDE4MBS.exit)
 0001:00000000       main
 0000:00000000  Imp  malloc               (DDE4MBS.malloc)
 0000:00000000  Imp  MYHANDLER            (EXCEPTQ.MYHANDLER)
 0001:00000065       TrapFunc
 0002:00000064       _argc
 0002:00000068       _argv
 0000:00000000  Imp  _CRT_init            (DDE4MBS._CRT_init)
 0002:00000098       _edata
 0002:000000A0       _end
 0000:00000000  Imp  _environ             (DDE4MBS._environ)
 0000:00000000  Imp  _exception_procinit  (DDE4MBS._exception_procinit)
 0002:00000060       _exeentry
 0000:00000000  Imp  _EXE_Exception       (DDE4MBS._EXE_Exception)
 0000:00000000  Imp  _matherr             (DDE4MBS._matherr)
 0000:00000000  Imp  _PrintErrMsg         (DDE4MBS._PrintErrMsg)
 0000:00000000  Imp  _printfieee          (DDE4MBS._printfieee)
 0000:00000000  Imp  _ProfileHook16       (DDE4MBS._ProfileHook16)
 0000:00000000  Imp  _ProfileHook32       (DDE4MBS._ProfileHook32)
 0000:00000000  Imp  _ProfileHookVAOptlink32 (DDE4MBS._ProfileHookVAOptlink32)
 0001:00000144       _setuparg
 0000:00000000  Imp  _terminate           (DDE4MBS._terminate)
 0001:00000090       __RunExitList
 0001:00000344       __sctordtorInit
 0001:0000034C       __sctordtorTerm
 0001:0000033C       __wctordtorInit
 0001:00000340       __wctordtorTerm

  Address         Publics by Value

 0000:00000000  Imp  _exception_procinit  (DDE4MBS._exception_procinit)
 0000:00000000  Imp  _printfieee          (DDE4MBS._printfieee)
 0000:00000000  Imp  _ProfileHookVAOptlink32 (DDE4MBS._ProfileHookVAOptlink32)
 0000:00000000  Imp  DosExitList          (DOSCALLS.296)
 0000:00000000  Imp  _PrintErrMsg         (DDE4MBS._PrintErrMsg)
 0000:00000000  Imp  _ProfileHook32       (DDE4MBS._ProfileHook32)
 0000:00000000  Imp  _ProfileHook16       (DDE4MBS._ProfileHook16)
 0000:00000000  Imp  _matherr             (DDE4MBS._matherr)
 0000:00000000  Imp  malloc               (DDE4MBS.malloc)
 0000:00000000  Imp  _terminate           (DDE4MBS._terminate)
 0000:00000000  Imp  exit                 (DDE4MBS.exit)
 0000:00000000  Imp  _EXE_Exception       (DDE4MBS._EXE_Exception)
 0000:00000000  Imp  _CRT_init            (DDE4MBS._CRT_init)
 0000:00000000  Imp  MYHANDLER            (EXCEPTQ.MYHANDLER)
 0000:00000000  Imp  _environ             (DDE4MBS._environ)
 0001:00000000       main
 0001:00000065       TrapFunc
 0001:00000090       __RunExitList
 0001:00000144       _setuparg
 0001:0000033C       __wctordtorInit
 0001:00000340       __wctordtorTerm
 0001:00000344       __sctordtorInit
 0001:0000034C       __sctordtorTerm
 0002:00000060       _exeentry
 0002:00000064       _argc
 0002:00000068       _argv
 0002:00000098       _edata
 0002:000000A0       _end

Line numbers for sample.OBJ(E:\PRG\EXCEPT2\SAMPLE.C) segment CODE32

	 Source       Src File           Seg:Offset
	Line Num       Index                 (0X)
	---------     --------          -------------
	     44            1            0001:00000000
	     47            1            0001:0000001e
	     51            1            0001:00000024
	     52            1            0001:00000031
	     54            1            0001:0000003e
	     55            1            0001:00000042
	     56            1            0001:00000048
	     58            1            0001:0000004f
	     59            1            0001:00000057
	     61            1            0001:00000065
	     63            1            0001:00000070
	     65            1            0001:00000077
	     66            1            0001:0000007e
	     67            1            0001:00000084

	Record Number of Start of Source: 44
	Number of Primary Source Records: 14
	Source & Listing Files:
	File 1)E:\PRG\EXCEPT2\SAMPLE.C
	File 2)E:\IBMCPP\INCLUDE\STDIO.H
	File 3)E:\IBMCPP\INCLUDE\STDLIB.H

Program entry point at 0001:000000AC
