
 TRAPTRAP

 Start         Length     Name                   Class
 0001:00000000 000008B04H CODE32                 CODE 32-bit
 0002:00000000 000000019H CODE16                 CODE 16-bit
 0003:00000000 000000030H _MSGSEG32              CODE 32-bit
 0004:00000000 000000008H LIBDATA16              DATA16 16-bit
 0005:00000000 0000015D0H DATA32                 DATA 32-bit
 0005:000015D0 000000000H CTOR_DTOR1             DATA 32-bit
 0005:000015D0 000000000H CTOR_DTOR2             DATA 32-bit
 0005:000015D0 000000000H CTOR_DTOR3             DATA 32-bit
 0005:000015D0 0000002B0H CONST32                CONST 32-bit
 0005:00001880 00000000CH EDC1                   EDC_CLASS 32-bit
 0005:0000188C 0000003A8H EDC2                   EDC_CLASS 32-bit
 0005:00001C34 000000004H EDC3                   EDC_CLASS 32-bit
 0005:00001C38 000000000H BSS32                  BSS 32-bit
 0005:00001C38 0000007F4H c_common               BSS 32-bit
 0005:00002430 00000A000H STACK32                STACK 32-bit

 Origin   Group
 0000:0   FLAT
 0005:0   DGROUP

  Address         Publics by Name

 0005:00002398       @BSSE:\PRG\EXCEPT\TRAPTRAP.C
 0005:00001E9C       @BSSEDCINIT.C
 0005:00001ECC       @BSSFULLPATH.C
 0005:00001EC0       @BSSN_EXCEPT.C
 0005:00001EBC       @BSSPRTEMSG.C
 0005:00002180       BigSeg
 0005:00002288       Buffer
 0001:00002A28       calloc
 0001:000009D0       CheckExcep
 0005:00002184       CmdBuf
 0005:00002284       CmdPtr
 0005:000020EC       DbgBuf
 0000:00000000  Imp  DOS16SIZESEG         (DOSCALLS.126)
 0000:00000000  Imp  DOS32FLATTOSEL       (DOSCALLS.425)
 0003:00000012       DOS32GETMESSAGE
 0000:00000000  Imp  DOS32IQUERYMESSAGECP (MSG.8)
 0000:00000000  Imp  DOS32SELTOFLAT       (DOSCALLS.426)
 0000:00000000  Imp  DOS32TRUEGETMESSAGE  (MSG.6)
 0000:00000000  Imp  DosAllocMem          (DOSCALLS.299)
 0000:00000000  Imp  DosClose             (DOSCALLS.257)
 0000:00000000  Imp  DosCloseEventSem     (DOSCALLS.326)
 0000:00000000  Imp  DosCloseMutexSem     (DOSCALLS.333)
 0000:00000000  Imp  DosCreateEventSem    (DOSCALLS.324)
 0000:00000000  Imp  DosCreateMutexSem    (DOSCALLS.331)
 0000:00000000  Imp  DosCreateQueue       (QUECALLS.16)
 0000:00000000  Imp  DosCreateThread      (DOSCALLS.311)
 0000:00000000  Imp  DosDebug             (DOSCALLS.317)
 0000:00000000  Imp  DosExit              (DOSCALLS.234)
 0000:00000000  Imp  DosExitList          (DOSCALLS.296)
 0000:00000000  Imp  DOSFLATTOSEL         (DOSCALLS.425)
 0000:00000000  Imp  DosForceDelete       (DOSCALLS.110)
 0000:00000000  Imp  DosFreeMem           (DOSCALLS.304)
 0000:00000000  Imp  DosGetDateTime       (DOSCALLS.230)
 0000:00000000  Imp  DosGetInfoBlocks     (DOSCALLS.312)
 0003:00000012       DosGetMessage
 0000:00000000  Imp  DosOpen              (DOSCALLS.273)
 0000:00000000  Imp  DOSPOSTEVENTSEM      (DOSCALLS.328)
 0000:00000000  Imp  DOSQPROCSTATUS       (DOSCALL1.154)
 0000:00000000  Imp  DosQueryAppType      (DOSCALLS.323)
 0000:00000000  Imp  DosQueryDBCSEnv      (NLS.6)
 0000:00000000  Imp  DosQueryHType        (DOSCALLS.224)
 0000:00000000  Imp  DosQueryModuleName   (DOSCALLS.320)
 0000:00000000  Imp  DosQueryPathInfo     (DOSCALLS.223)
 0000:00000000  Imp  DosQuerySysInfo      (DOSCALLS.348)
 0000:00000000  Imp  DosRaiseException    (DOSCALLS.356)
 0000:00000000  Imp  DosRead              (DOSCALLS.281)
 0000:00000000  Imp  DOSRELEASEMUTEXSEM   (DOSCALLS.335)
 0000:00000000  Imp  DOSREQUESTMUTEXSEM   (DOSCALLS.334)
 0000:00000000  Imp  DOSRESETEVENTSEM     (DOSCALLS.327)
 0000:00000000  Imp  DosSelectSession     (SESMGR.38)
 0000:00000000  Imp  DosSetExceptionHandler (DOSCALLS.354)
 0000:00000000  Imp  DosSetFilePtr        (DOSCALLS.256)
 0000:00000000  Imp  DosSetFileSize       (DOSCALLS.272)
 0000:00000000  Imp  DosSetRelMaxFH       (DOSCALLS.382)
 0000:00000000  Imp  DosSetSignalExceptionFocus (DOSCALLS.378)
 0000:00000000  Imp  DosSleep             (DOSCALLS.229)
 0000:00000000  Imp  DosStartSession      (SESMGR.37)
 0000:00000000  Imp  DOSWAITEVENTSEM      (DOSCALLS.329)
 0000:00000000  Imp  DosWrite             (DOSCALLS.282)
 0001:00002B04       exit
 0001:00006F84       fflush
 0005:00001D40       FirstLoaded
 0001:00006590       fopen
 0001:000024F8       free
 0001:000077F8       getenv
 0001:000014A0       GetObjects
 0005:000020E8       hTrap
 0001:000087A0       isprint
 0005:000023F4       LastLoaded
 0005:00001EB8       ListedThreads
 0001:00001438       ListModules
 0005:000023C8       LoadError
 0001:000061FC       localtime
 0001:00000000       main
 0001:00002390       malloc
 0001:00008AAC       memcpy
 0001:00008A70       memset
 0001:00005EFC       mktime
 0005:00001FD0       Name
 0005:00001C40       ObjectBuffer
 0005:000020DC       pBuf
 0005:000020D8       pLib
 0005:000020E4       pProc
 0005:000020D4       pRec
 0005:00001D90       ProcessName
 0005:000023F8       pShrMemRec
 0005:000020E0       pTemp
 0005:000023AC       pThread
 0005:00001C38       QueueHandle
 0005:00000000       QueueName
 0005:00001D84       ReturnCodes
 0005:000023B8       Selector
 0003:00000000       sig32
 0005:000023C4       StackCopy
 0005:00000B18       stderr
 0005:00000B10       stdin
 0005:00000B14       stdout
 0005:00002428       stopstring
 0001:0000899C       strcat
 0001:000089E0       strcpy
 0001:000042B0       strdup
 0001:00008A1C       strlen
 0001:000045F0       strnicmp
 0001:00008A40       strrchr
 0001:0000431C       strspn
 0001:00004358       strtoul
 0001:0000425C       strupr
 0001:00006174       time
 0005:00002408       WatchIndex
 0005:00002418       WatchPoint
 0005:00002394       WatchPointCount
 0001:00008630       wcstombs
 0001:00005834       wctomb
 0005:00000B04       _argc
 0005:00000B08       _argv
 0001:00003B3C       _beginthread
 0001:0000861C       _bit_test_set
 0001:00005908       _bufprint
 0001:00003638       _callback_opt_sys
 0001:00008220       _CheckIfMem
 0001:00003DBC       _CloseSem
 0001:000062BC       _CloseStream
 0001:00005CA8       _cnvrt
 0001:00003D50       _CreateSem
 0001:00003420       _critlib_except
 0001:00003888       _CrtGetLocalData
 0001:00003AFC       _CrtInitThread
 0001:000017B0       _CRT_init
 0005:000015B0       _crt_msg_handle
 0001:00001E30       _CRT_term
 0005:000012C0       _ctable
 0005:00002390       _ctype
 0005:000013C4       _ctypeModule
 0005:00000B20       _daylight
 0001:000083AC       _DosFlatToSel
 0001:000083A4       _DosSelToFlat
 0005:00001C38       _edata
 0001:00003FE0       _edcGetMessage
 0005:00001D8C       _edcinit_fin
 0005:00002430       _end
 0001:00003BB0       _endthread
 0005:000023BC       _environ
 0001:00003FB4       _errno
 0001:00003614       _Exception
 0001:00003324       _exception_dllinit
 0001:00003354       _exception_procinit
 0005:00000B00       _exeentry
 0001:00002C04       _EXE_Exception
 0001:00006E8C       _fcloseall
 0001:000035F4       _fcloseall_weak
 0001:000070E0       _fillb
 0005:00001880       _firsteib
 0001:00007328       _Flush
 0001:000074E0       _flushb
 0001:0000669C       _Fmprs
 0005:00001520       _fopenused
 0001:000035E4       _fpreset
 0001:000056E4       _fprintfieee
 0001:00005724       _fprintf_ansi
 0001:000044E4       _freeCtype
 0001:00003610       _freeCtype_weak
 0001:000037AC       _FreeFCB
 0001:0000368C       _freeLocale
 0001:00003608       _freeLocale_weak
 0001:00008578       _freeThreadStorage
 0001:000083B4       _fullpath
 0001:00003388       _get_eib
 0001:00003650       _get_seglim
 0005:00001C3C       _have_freed
 0001:00002974       _heapmin
 0001:00002684       _heapmin_int
 0001:0000798C       _ilog2
 0001:00006C44       _InitBuf
 0001:00006CC0       _InitFCB
 0001:00004500       _init_ctype
 0001:0000360C       _init_ctype_weak
 0001:00007994       _internal_err
 0005:00001C34       _lasteib
 0001:00002DAC       _Lib_excpt
 0005:000023F0       _locale_initialized
 0001:000036B0       _localInit
 0001:000079E8       _ltoa
 0001:00008AF0       _matherr
 0005:00000E60       _matherr_ptr
 0001:00008ADC       _Math_Exception_Def
 0005:00001E90       _memory_sem
 0001:00004058       _MesgServ
 0001:000033E4       _mig_eib_store
 0001:00007A8C       _noddprs
 0001:00007EF8       _OpenStream
 0005:000023C0       _osmajor
 0005:000023C1       _osminor
 0005:00000B28       _osmode
 0005:00001D44       _pBucketArr
 0005:00000B1C       _PGLOBAL_PTR
 0005:00001088       _pg_c_locale
 0005:0000108C       _pg_default_locale
 0005:00000F20       _pg_locale_info
 0001:00004004       _PrintErrMsg
 0001:00005754       _printfieee
 0001:00005798       _printf_ansi
 0001:00002C48       _recreate_exception
 0001:00003644       _Regen_exception
 0001:00003EA0       _ReleaseSem
 0001:00003E10       _RequestSem
 0001:00001B40       _setuparg
 0001:00001D38       _setupenv
 0001:000081EC       _set_crt_msg_handle
 0001:00002020       _split_chunk
 0001:000057CC       _sprintfieee
 0001:00005808       _sprintf_ansi
 0001:00004454       _strdate
 0001:0000449C       _strtime
 0001:00002BE4       _terminate
 0005:000023FC       _TerminateAndDumpSem
 0001:0000362C       _Test_and_reset
 0001:00001760       _test_handle
 0005:00000B24       _timezone
 0005:00001EAC       _tmemory_sem
 0001:000087C4       _toint
 0005:000023B0       _tzname
 0001:000081A8       _uwrite
 0001:000056D0       _wcputs
 0001:00002588       _Weak_FreeListEntry
 0001:00006558       _wfgetposMem
 0001:000056A8       _wfloatfmt
 0001:00006548       _wfsetposMem
 0001:00006588       _wOpenMemory
 0001:00006544       _wreadbSyncMem
 0001:00006584       _wRemoveMem
 0001:0000656C       _wrewindMem
 0001:00006550       _wSeekMem
 0001:00006570       _wtellMem
 0001:00006540       _wuwriteMem
 0001:000081A0       _w_raise
 0001:00003568       _w_Terminate_and_dump
 0001:00003404       __Async_exception_flag
 0001:00003F64       __broken_time_ptr
 0005:00000B30       __char_set_type
 0001:00003FC4       __cppstore
 0001:00003F54       __cvt_buf_ptr
 0005:0000238C       __c_local_ctype
 0005:00000B2C       __decimal_point
 0001:00004BE0       __dofmto
 0001:00003FA4       __doserrno
 0001:00003F94       __dttm_ptr
 0001:00008274       __EDC3216
 0001:0000830C       __EDCThunkProlog
 0001:00002F18       __Exception
 0004:00000000       __fac
 0001:00003F74       __flags
 0001:0000243C       __free
 0001:00003F34       __internal_buf_ptr
 0001:00003F44       __lcvt_buf_ptr
 0005:00001414       __leapm
 0001:00002118       __malloc
 0005:00001484       __mleapm
 0005:00001450       __mmonth
 0005:000013E0       __month
 0001:00003F24       __perror_msg_ptr
 0001:00003EE8       __random_seed
 0001:000016A0       __RunExitList
 0001:000033F4       __Saved_return_address
 0001:00001E20       __sctordtorInit
 0001:00001E28       __sctordtorTerm
 0001:00003F84       __strerror_msg_ptr
 0001:00003F04       __strtok_pos
 0001:00003F14       __tempname_ptr
 0001:00003EBC       __threadid
 0001:00003EF8       __version
 0001:00001E18       __wctordtorInit
 0001:00001E1C       __wctordtorTerm

  Address         Publics by Value

 0000:00000000  Imp  DosRaiseException    (DOSCALLS.356)
 0000:00000000  Imp  DosQueryPathInfo     (DOSCALLS.223)
 0000:00000000  Imp  DosSetSignalExceptionFocus (DOSCALLS.378)
 0000:00000000  Imp  DosQuerySysInfo      (DOSCALLS.348)
 0000:00000000  Imp  DosSetRelMaxFH       (DOSCALLS.382)
 0000:00000000  Imp  DosSetExceptionHandler (DOSCALLS.354)
 0000:00000000  Imp  DosSetFilePtr        (DOSCALLS.256)
 0000:00000000  Imp  DosGetDateTime       (DOSCALLS.230)
 0000:00000000  Imp  DOS32IQUERYMESSAGECP (MSG.8)
 0000:00000000  Imp  DosCreateQueue       (QUECALLS.16)
 0000:00000000  Imp  DosGetInfoBlocks     (DOSCALLS.312)
 0000:00000000  Imp  DOS16SIZESEG         (DOSCALLS.126)
 0000:00000000  Imp  DosQueryDBCSEnv      (NLS.6)
 0000:00000000  Imp  DosCreateEventSem    (DOSCALLS.324)
 0000:00000000  Imp  DosCreateMutexSem    (DOSCALLS.331)
 0000:00000000  Imp  DOSRESETEVENTSEM     (DOSCALLS.327)
 0000:00000000  Imp  DOSWAITEVENTSEM      (DOSCALLS.329)
 0000:00000000  Imp  DosForceDelete       (DOSCALLS.110)
 0000:00000000  Imp  DosCreateThread      (DOSCALLS.311)
 0000:00000000  Imp  DosAllocMem          (DOSCALLS.299)
 0000:00000000  Imp  DosDebug             (DOSCALLS.317)
 0000:00000000  Imp  DosOpen              (DOSCALLS.273)
 0000:00000000  Imp  DosFreeMem           (DOSCALLS.304)
 0000:00000000  Imp  DosSelectSession     (SESMGR.38)
 0000:00000000  Imp  DosRead              (DOSCALLS.281)
 0000:00000000  Imp  DOS32FLATTOSEL       (DOSCALLS.425)
 0000:00000000  Imp  DOS32SELTOFLAT       (DOSCALLS.426)
 0000:00000000  Imp  DOSRELEASEMUTEXSEM   (DOSCALLS.335)
 0000:00000000  Imp  DOS32TRUEGETMESSAGE  (MSG.6)
 0000:00000000  Imp  DosQueryAppType      (DOSCALLS.323)
 0000:00000000  Imp  DOSPOSTEVENTSEM      (DOSCALLS.328)
 0000:00000000  Imp  DosSetFileSize       (DOSCALLS.272)
 0000:00000000  Imp  DosQueryHType        (DOSCALLS.224)
 0000:00000000  Imp  DOSQPROCSTATUS       (DOSCALL1.154)
 0000:00000000  Imp  DosStartSession      (SESMGR.37)
 0000:00000000  Imp  DOSFLATTOSEL         (DOSCALLS.425)
 0000:00000000  Imp  DosCloseEventSem     (DOSCALLS.326)
 0000:00000000  Imp  DosSleep             (DOSCALLS.229)
 0000:00000000  Imp  DosExit              (DOSCALLS.234)
 0000:00000000  Imp  DosCloseMutexSem     (DOSCALLS.333)
 0000:00000000  Imp  DosQueryModuleName   (DOSCALLS.320)
 0000:00000000  Imp  DosWrite             (DOSCALLS.282)
 0000:00000000  Imp  DosExitList          (DOSCALLS.296)
 0000:00000000  Imp  DosClose             (DOSCALLS.257)
 0000:00000000  Imp  DOSREQUESTMUTEXSEM   (DOSCALLS.334)
 0001:00000000       main
 0001:000009D0       CheckExcep
 0001:00001438       ListModules
 0001:000014A0       GetObjects
 0001:000016A0       __RunExitList
 0001:00001760       _test_handle
 0001:000017B0       _CRT_init
 0001:00001B40       _setuparg
 0001:00001D38       _setupenv
 0001:00001E18       __wctordtorInit
 0001:00001E1C       __wctordtorTerm
 0001:00001E20       __sctordtorInit
 0001:00001E28       __sctordtorTerm
 0001:00001E30       _CRT_term
 0001:00002020       _split_chunk
 0001:00002118       __malloc
 0001:00002390       malloc
 0001:0000243C       __free
 0001:000024F8       free
 0001:00002588       _Weak_FreeListEntry
 0001:00002684       _heapmin_int
 0001:00002974       _heapmin
 0001:00002A28       calloc
 0001:00002B04       exit
 0001:00002BE4       _terminate
 0001:00002C04       _EXE_Exception
 0001:00002C48       _recreate_exception
 0001:00002DAC       _Lib_excpt
 0001:00002F18       __Exception
 0001:00003324       _exception_dllinit
 0001:00003354       _exception_procinit
 0001:00003388       _get_eib
 0001:000033E4       _mig_eib_store
 0001:000033F4       __Saved_return_address
 0001:00003404       __Async_exception_flag
 0001:00003420       _critlib_except
 0001:00003568       _w_Terminate_and_dump
 0001:000035E4       _fpreset
 0001:000035F4       _fcloseall_weak
 0001:00003608       _freeLocale_weak
 0001:0000360C       _init_ctype_weak
 0001:00003610       _freeCtype_weak
 0001:00003614       _Exception
 0001:0000362C       _Test_and_reset
 0001:00003638       _callback_opt_sys
 0001:00003644       _Regen_exception
 0001:00003650       _get_seglim
 0001:0000368C       _freeLocale
 0001:000036B0       _localInit
 0001:000037AC       _FreeFCB
 0001:00003888       _CrtGetLocalData
 0001:00003AFC       _CrtInitThread
 0001:00003B3C       _beginthread
 0001:00003BB0       _endthread
 0001:00003D50       _CreateSem
 0001:00003DBC       _CloseSem
 0001:00003E10       _RequestSem
 0001:00003EA0       _ReleaseSem
 0001:00003EBC       __threadid
 0001:00003EE8       __random_seed
 0001:00003EF8       __version
 0001:00003F04       __strtok_pos
 0001:00003F14       __tempname_ptr
 0001:00003F24       __perror_msg_ptr
 0001:00003F34       __internal_buf_ptr
 0001:00003F44       __lcvt_buf_ptr
 0001:00003F54       __cvt_buf_ptr
 0001:00003F64       __broken_time_ptr
 0001:00003F74       __flags
 0001:00003F84       __strerror_msg_ptr
 0001:00003F94       __dttm_ptr
 0001:00003FA4       __doserrno
 0001:00003FB4       _errno
 0001:00003FC4       __cppstore
 0001:00003FE0       _edcGetMessage
 0001:00004004       _PrintErrMsg
 0001:00004058       _MesgServ
 0001:0000425C       strupr
 0001:000042B0       strdup
 0001:0000431C       strspn
 0001:00004358       strtoul
 0001:00004454       _strdate
 0001:0000449C       _strtime
 0001:000044E4       _freeCtype
 0001:00004500       _init_ctype
 0001:000045F0       strnicmp
 0001:00004BE0       __dofmto
 0001:000056A8       _wfloatfmt
 0001:000056D0       _wcputs
 0001:000056E4       _fprintfieee
 0001:00005724       _fprintf_ansi
 0001:00005754       _printfieee
 0001:00005798       _printf_ansi
 0001:000057CC       _sprintfieee
 0001:00005808       _sprintf_ansi
 0001:00005834       wctomb
 0001:00005908       _bufprint
 0001:00005CA8       _cnvrt
 0001:00005EFC       mktime
 0001:00006174       time
 0001:000061FC       localtime
 0001:000062BC       _CloseStream
 0001:00006540       _wuwriteMem
 0001:00006544       _wreadbSyncMem
 0001:00006548       _wfsetposMem
 0001:00006550       _wSeekMem
 0001:00006558       _wfgetposMem
 0001:0000656C       _wrewindMem
 0001:00006570       _wtellMem
 0001:00006584       _wRemoveMem
 0001:00006588       _wOpenMemory
 0001:00006590       fopen
 0001:0000669C       _Fmprs
 0001:00006C44       _InitBuf
 0001:00006CC0       _InitFCB
 0001:00006E8C       _fcloseall
 0001:00006F84       fflush
 0001:000070E0       _fillb
 0001:00007328       _Flush
 0001:000074E0       _flushb
 0001:000077F8       getenv
 0001:0000798C       _ilog2
 0001:00007994       _internal_err
 0001:000079E8       _ltoa
 0001:00007A8C       _noddprs
 0001:00007EF8       _OpenStream
 0001:000081A0       _w_raise
 0001:000081A8       _uwrite
 0001:000081EC       _set_crt_msg_handle
 0001:00008220       _CheckIfMem
 0001:00008274       __EDC3216
 0001:0000830C       __EDCThunkProlog
 0001:000083A4       _DosSelToFlat
 0001:000083AC       _DosFlatToSel
 0001:000083B4       _fullpath
 0001:00008578       _freeThreadStorage
 0001:0000861C       _bit_test_set
 0001:00008630       wcstombs
 0001:000087A0       isprint
 0001:000087C4       _toint
 0001:0000899C       strcat
 0001:000089E0       strcpy
 0001:00008A1C       strlen
 0001:00008A40       strrchr
 0001:00008A70       memset
 0001:00008AAC       memcpy
 0001:00008ADC       _Math_Exception_Def
 0001:00008AF0       _matherr
 0003:00000000       sig32
 0003:00000012       DOS32GETMESSAGE
 0003:00000012       DosGetMessage
 0004:00000000       __fac
 0005:00000000       QueueName
 0005:00000B00       _exeentry
 0005:00000B04       _argc
 0005:00000B08       _argv
 0005:00000B10       stdin
 0005:00000B14       stdout
 0005:00000B18       stderr
 0005:00000B1C       _PGLOBAL_PTR
 0005:00000B20       _daylight
 0005:00000B24       _timezone
 0005:00000B28       _osmode
 0005:00000B2C       __decimal_point
 0005:00000B30       __char_set_type
 0005:00000E60       _matherr_ptr
 0005:00000F20       _pg_locale_info
 0005:00001088       _pg_c_locale
 0005:0000108C       _pg_default_locale
 0005:000012C0       _ctable
 0005:000013C4       _ctypeModule
 0005:000013E0       __month
 0005:00001414       __leapm
 0005:00001450       __mmonth
 0005:00001484       __mleapm
 0005:00001520       _fopenused
 0005:000015B0       _crt_msg_handle
 0005:00001880       _firsteib
 0005:00001C34       _lasteib
 0005:00001C38       _edata
 0005:00001C38       QueueHandle
 0005:00001C3C       _have_freed
 0005:00001C40       ObjectBuffer
 0005:00001D40       FirstLoaded
 0005:00001D44       _pBucketArr
 0005:00001D84       ReturnCodes
 0005:00001D8C       _edcinit_fin
 0005:00001D90       ProcessName
 0005:00001E90       _memory_sem
 0005:00001E9C       @BSSEDCINIT.C
 0005:00001EAC       _tmemory_sem
 0005:00001EB8       ListedThreads
 0005:00001EBC       @BSSPRTEMSG.C
 0005:00001EC0       @BSSN_EXCEPT.C
 0005:00001ECC       @BSSFULLPATH.C
 0005:00001FD0       Name
 0005:000020D4       pRec
 0005:000020D8       pLib
 0005:000020DC       pBuf
 0005:000020E0       pTemp
 0005:000020E4       pProc
 0005:000020E8       hTrap
 0005:000020EC       DbgBuf
 0005:00002180       BigSeg
 0005:00002184       CmdBuf
 0005:00002284       CmdPtr
 0005:00002288       Buffer
 0005:0000238C       __c_local_ctype
 0005:00002390       _ctype
 0005:00002394       WatchPointCount
 0005:00002398       @BSSE:\PRG\EXCEPT\TRAPTRAP.C
 0005:000023AC       pThread
 0005:000023B0       _tzname
 0005:000023B8       Selector
 0005:000023BC       _environ
 0005:000023C0       _osmajor
 0005:000023C1       _osminor
 0005:000023C4       StackCopy
 0005:000023C8       LoadError
 0005:000023F0       _locale_initialized
 0005:000023F4       LastLoaded
 0005:000023F8       pShrMemRec
 0005:000023FC       _TerminateAndDumpSem
 0005:00002408       WatchIndex
 0005:00002418       WatchPoint
 0005:00002428       stopstring
 0005:00002430       _end

Program entry point at 0001:000016C8
